; Function Attrs: mustprogress norecurse uwtable
define internal fastcc void @_ZN12_GLOBAL__N_110TestLocalsEv() unnamed_addr #3 personality ptr @__gxx_personality_v0 {
entry:
  %mutex = alloca %"class.absl::Mutex", align 8
  %condvar = alloca %"class.absl::CondVar", align 8
  store i64 0, ptr %mutex, align 8
  store i64 0, ptr %condvar, align 8
  call fastcc void @_ZN12_GLOBAL__N_18RunTestsEPN4absl5MutexEPNS0_7CondVarE(ptr noundef nonnull %mutex, ptr noundef nonnull %condvar)
  ret void
}